; Function Attrs: mustprogress nofree norecurse nounwind willreturn memory(argmem: readwrite, inaccessiblemem: readwrite) uwtable
define internal range(i32 0, 2) i32 @IsStreamStopped(ptr noundef %0) #5 {
  %2 = getelementptr inbounds nuw i8, ptr %0, i64 580
  %3 = load volatile i32, ptr %2, align 4, !tbaa !124
  %.not = icmp eq i32 %3, 0
  br i1 %.not, label %4, label %8

4:                                                ; preds = %1
  %5 = getelementptr inbounds nuw i8, ptr %0, i64 572
  %6 = load volatile i32, ptr %5, align 4, !tbaa !127
  %.not3 = icmp eq i32 %6, 0
  %7 = zext i1 %.not3 to i32
  br label %8

8:                                                ; preds = %4, %1
  %9 = phi i32 [ 0, %1 ], [ %7, %4 ]
  ret i32 %9
}